target datalayout = "e-m:e-p270:32:32-p271:32:32-p272:64:64-i64:64-i128:128-f80:128-n8:16:32:64-S128"
target triple = "x86_64-pc-linux-gnu"

; Function Attrs: nounwind uwtable
define zeroext i1 @prte_hwloc_base_single_cpu(ptr noundef %0) #0 {
  %2 = alloca i1, align 1
  %3 = alloca ptr, align 8
  %4 = alloca i32, align 4
  %5 = alloca i8, align 1
  %6 = alloca i32, align 4
  store ptr %0, ptr %3, align 8, !tbaa !27
  call void @llvm.lifetime.start.p0(i64 4, ptr %4) #10
  call void @llvm.lifetime.start.p0(i64 1, ptr %5) #10
  store i8 0, ptr %5, align 1, !tbaa !20
  %7 = load ptr, ptr %3, align 8, !tbaa !27
  %8 = call i32 @hwloc_bitmap_first(ptr noundef %7) #11
  store i32 %8, ptr %4, align 4, !tbaa !19
  br label %9

9:                                                ; preds = %25, %1
  %10 = load i32, ptr %4, align 4, !tbaa !19
  %11 = load ptr, ptr %3, align 8, !tbaa !27
  %12 = call i32 @hwloc_bitmap_last(ptr noundef %11) #11
  %13 = icmp sle i32 %10, %12
  br i1 %13, label %14, label %28

14:                                               ; preds = %9
  %15 = load ptr, ptr %3, align 8, !tbaa !27
  %16 = load i32, ptr %4, align 4, !tbaa !19
  %17 = call i32 @hwloc_bitmap_isset(ptr noundef %15, i32 noundef %16) #11
  %18 = icmp ne i32 %17, 0
  br i1 %18, label %19, label %24

19:                                               ; preds = %14
  %20 = load i8, ptr %5, align 1, !tbaa !20, !range !22, !noundef !23
  %21 = trunc i8 %20 to i1
  br i1 %21, label %22, label %23

22:                                               ; preds = %19
  store i1 false, ptr %2, align 1
  store i32 1, ptr %6, align 4
  br label %31

23:                                               ; preds = %19
  store i8 1, ptr %5, align 1, !tbaa !20
  br label %24

24:                                               ; preds = %23, %14
  br label %25

25:                                               ; preds = %24
  %26 = load i32, ptr %4, align 4, !tbaa !19
  %27 = add nsw i32 %26, 1
  store i32 %27, ptr %4, align 4, !tbaa !19
  br label %9, !llvm.loop !95

28:                                               ; preds = %9
  %29 = load i8, ptr %5, align 1, !tbaa !20, !range !22, !noundef !23
  %30 = trunc i8 %29 to i1
  store i1 %30, ptr %2, align 1
  store i32 1, ptr %6, align 4
  br label %31

31:                                               ; preds = %28, %22
  call void @llvm.lifetime.end.p0(i64 1, ptr %5) #10
  call void @llvm.lifetime.end.p0(i64 4, ptr %4) #10
  %32 = load i1, ptr %2, align 1
  ret i1 %32
}