; Function Attrs: nofree nounwind memory(read) uwtable
define zeroext i1 @prte_hwloc_base_single_cpu(ptr noundef %0) local_unnamed_addr #10 {
  %2 = tail call i32 @hwloc_bitmap_first(ptr noundef %0) #19
  %3 = tail call i32 @hwloc_bitmap_last(ptr noundef %0) #19
  %.not12 = icmp sgt i32 %2, %3
  br i1 %.not12, label %.loopexit, label %.lr.ph

.lr.ph:                                           ; preds = %1, %7
  %.014 = phi i8 [ %.1, %7 ], [ 0, %1 ]
  %.0813 = phi i32 [ %8, %7 ], [ %2, %1 ]
  %4 = tail call i32 @hwloc_bitmap_isset(ptr noundef %0, i32 noundef %.0813) #19
  %.not10 = icmp eq i32 %4, 0
  br i1 %.not10, label %7, label %5

5:                                                ; preds = %.lr.ph
  %6 = trunc nuw i8 %.014 to i1
  br i1 %6, label %.loopexit, label %7

7:                                                ; preds = %5, %.lr.ph
  %.1 = phi i8 [ %.014, %.lr.ph ], [ 1, %5 ]
  %8 = add i32 %.0813, 1
  %exitcond.not = icmp eq i32 %.0813, %3
  br i1 %exitcond.not, label %._crit_edge.loopexit, label %.lr.ph, !llvm.loop !79

._crit_edge.loopexit:                             ; preds = %7
  %9 = trunc nuw i8 %.1 to i1
  br label %.loopexit

.loopexit:                                        ; preds = %5, %1, %._crit_edge.loopexit
  %.09 = phi i1 [ false, %1 ], [ %9, %._crit_edge.loopexit ], [ false, %5 ]
  ret i1 %.09
}